	.text
	.file	"syrk.cu"
	.file	0 "/home/nitya/llvm-project/llvm/lib/Transforms/CUDAAdvisor/expr/Tests/syrkllvm" "syrk.cu" md5 0xcd00f6a1fe83c8a20c7c703967c89c23
	.file	1 "./../../../src" "bandwidth_helpers.cu" md5 0x86396f3a68fb50fb2e6980fb35754e1c
	.file	2 "./../../../src" "compute_intensity.cu" md5 0x62ac2fd5e000a02e77d171a7c107c1cf
	.file	3 "/usr/local/cuda-11.5/include" "driver_types.h" md5 0x9ff5ac8d5c7e432f352f0ea5f53d36db
	.file	4 "/usr/lib/gcc/x86_64-linux-gnu/10/include" "stddef.h" md5 0x862bb94651e55628ab3700c73b0fcc15
	.file	5 "/usr/local/cuda-11.5/include" "vector_types.h" md5 0x2a5001670f9fc21ea8b1379a76f36a08
	.file	6 "/home/nitya/llvm-project" "build/lib/clang/14.0.6/include/__clang_cuda_math_forward_declares.h" md5 0x7fcaa66c0bf1529fc7d2359f3dc2dd30
	.file	7 "/usr/include" "stdlib.h" md5 0x02258fad21adf111bb9df9825e61954a
	.file	8 "/usr/include/c++/10/bits" "std_abs.h"
	.file	9 "/usr/include/x86_64-linux-gnu/bits" "mathcalls.h" md5 0x8c6e2d0d2bda65bc5ba1ca02b65383b7
	.file	10 "/usr/include/c++/10" "cmath"
	.file	11 "/usr/include" "math.h" md5 0xf3450d1d586f704597de1a1b2bed18f3
	.file	12 "/usr/include/c++/10" "cstdlib"
	.file	13 "/usr/include/c++/10" "stdlib.h" md5 0x74812296ae1ebf65f0c19983efc04bc1
	.file	14 "/home/nitya/llvm-project" "build/lib/clang/14.0.6/include/__clang_cuda_math.h" md5 0xfe518c6627888b16092fffb551683c38
	.file	15 "/home/nitya/llvm-project" "build/lib/clang/14.0.6/include/__clang_cuda_cmath.h" md5 0x3d0d88afe6654d905aa65f6ef63eb849
	.file	16 "/usr/include/c++/10" "math.h" md5 0xb4e5451670188aa97f74ef245fc696ff
	.section	.rodata.cst8,"aM",@progbits,8
	.p2align	3                               # -- Begin function _Z7rtclockv
.LCPI0_0:
	.quad	0x3eb0c6f7a0b5ed8d              # double 9.9999999999999995E-7
	.text
	.globl	_Z7rtclockv
	.p2align	4, 0x90
	.type	_Z7rtclockv,@function
_Z7rtclockv:                            # @_Z7rtclockv
.Lfunc_begin0:
	.file	17 "./../../common" "polybenchUtilFuncts.h" md5 0xec2ae788a97cf920b986c6fcfb147d6d
	.loc	17 12 0                         # ./../../common/polybenchUtilFuncts.h:12:0
	.cfi_startproc
# %bb.0:                                # %entry
	pushq	%rbp
	.cfi_def_cfa_offset 16
	.cfi_offset %rbp, -16
	movq	%rsp, %rbp
	.cfi_def_cfa_register %rbp
	subq	$32, %rsp
.Ltmp0:
	.loc	17 16 31 prologue_end           # ./../../common/polybenchUtilFuncts.h:16:31
	leaq	-32(%rbp), %rsi
	.loc	17 16 12 is_stmt 0              # ./../../common/polybenchUtilFuncts.h:16:12
	leaq	-24(%rbp), %rdi
	callq	gettimeofday@PLT
	.loc	17 16 10                        # ./../../common/polybenchUtilFuncts.h:16:10
	movl	%eax, -4(%rbp)
.Ltmp1:
	.loc	17 17 14 is_stmt 1              # ./../../common/polybenchUtilFuncts.h:17:14
	cmpl	$0, -4(%rbp)
.Ltmp2:
	.loc	17 17 9 is_stmt 0               # ./../../common/polybenchUtilFuncts.h:17:9
	je	.LBB0_2
# %bb.1:                                # %if.then
.Ltmp3:
	.loc	17 17 64                        # ./../../common/polybenchUtilFuncts.h:17:64
	movl	-4(%rbp), %esi
	.loc	17 17 20                        # ./../../common/polybenchUtilFuncts.h:17:20
	leaq	.L.str(%rip), %rdi
	movb	$0, %al
	callq	printf@PLT
.Ltmp4:
.LBB0_2:                                # %if.end
	.loc	17 18 12 is_stmt 1              # ./../../common/polybenchUtilFuncts.h:18:12
	cvtsi2sdq	-24(%rbp), %xmm1
	.loc	17 18 24 is_stmt 0              # ./../../common/polybenchUtilFuncts.h:18:24
	cvtsi2sdq	-16(%rbp), %xmm0
	movsd	.LCPI0_0(%rip), %xmm2           # xmm2 = mem[0],zero
	.loc	17 18 22                        # ./../../common/polybenchUtilFuncts.h:18:22
	mulsd	%xmm2, %xmm0
	addsd	%xmm1, %xmm0
	.loc	17 18 5                         # ./../../common/polybenchUtilFuncts.h:18:5
	addq	$32, %rsp
	popq	%rbp
	.cfi_def_cfa %rsp, 8
	retq
.Ltmp5:
.Lfunc_end0:
	.size	_Z7rtclockv, .Lfunc_end0-_Z7rtclockv
	.cfi_endproc
                                        # -- End function
	.section	.rodata.cst4,"aM",@progbits,4
	.p2align	2                               # -- Begin function _Z6absValf
.LCPI1_0:
	.long	0xbf800000                      # float -1
	.text
	.globl	_Z6absValf
	.p2align	4, 0x90
	.type	_Z6absValf,@function
_Z6absValf:                             # @_Z6absValf
.Lfunc_begin1:
	.loc	17 23 0 is_stmt 1               # ./../../common/polybenchUtilFuncts.h:23:0
	.cfi_startproc
# %bb.0:                                # %entry
	pushq	%rbp
	.cfi_def_cfa_offset 16
	.cfi_offset %rbp, -16
	movq	%rsp, %rbp
	.cfi_def_cfa_register %rbp
	movss	%xmm0, -4(%rbp)
.Ltmp6:
	.loc	17 24 5 prologue_end            # ./../../common/polybenchUtilFuncts.h:24:5
	xorps	%xmm0, %xmm0
.Ltmp7:
	.loc	17 24 7 is_stmt 0               # ./../../common/polybenchUtilFuncts.h:24:7
	ucomiss	-4(%rbp), %xmm0
.Ltmp8:
	.loc	17 24 5                         # ./../../common/polybenchUtilFuncts.h:24:5
	jbe	.LBB1_2
# %bb.1:                                # %if.then
.Ltmp9:
	.loc	17 26 13 is_stmt 1              # ./../../common/polybenchUtilFuncts.h:26:13
	movss	.LCPI1_0(%rip), %xmm0           # xmm0 = mem[0],zero,zero,zero
	mulss	-4(%rbp), %xmm0
	.loc	17 26 3 is_stmt 0               # ./../../common/polybenchUtilFuncts.h:26:3
	movss	%xmm0, -8(%rbp)
	jmp	.LBB1_3
.Ltmp10:
.LBB1_2:                                # %if.else
	.loc	17 30 10 is_stmt 1              # ./../../common/polybenchUtilFuncts.h:30:10
	movss	-4(%rbp), %xmm0                 # xmm0 = mem[0],zero,zero,zero
	.loc	17 30 3 is_stmt 0               # ./../../common/polybenchUtilFuncts.h:30:3
	movss	%xmm0, -8(%rbp)
.Ltmp11:
.LBB1_3:                                # %return
	.loc	17 32 1 is_stmt 1               # ./../../common/polybenchUtilFuncts.h:32:1
	movss	-8(%rbp), %xmm0                 # xmm0 = mem[0],zero,zero,zero
	popq	%rbp
	.cfi_def_cfa %rsp, 8
	retq
.Ltmp12:
.Lfunc_end1:
	.size	_Z6absValf, .Lfunc_end1-_Z6absValf
	.cfi_endproc
                                        # -- End function
	.section	.rodata.cst8,"aM",@progbits,8
	.p2align	3                               # -- Begin function _Z11percentDiffdd
.LCPI2_0:
	.quad	0x3f847ae147ae147b              # double 0.01
.LCPI2_2:
	.quad	0x3e45798ee0000000              # double 9.9999999392252903E-9
	.section	.rodata.cst4,"aM",@progbits,4
	.p2align	2
.LCPI2_1:
	.long	0x42c80000                      # float 100
	.text
	.globl	_Z11percentDiffdd
	.p2align	4, 0x90
	.type	_Z11percentDiffdd,@function
_Z11percentDiffdd:                      # @_Z11percentDiffdd
.Lfunc_begin2:
	.loc	17 37 0                         # ./../../common/polybenchUtilFuncts.h:37:0
	.cfi_startproc
# %bb.0:                                # %entry
	pushq	%rbp
	.cfi_def_cfa_offset 16
	.cfi_offset %rbp, -16
	movq	%rsp, %rbp
	.cfi_def_cfa_register %rbp
	subq	$32, %rsp
	movsd	%xmm0, -16(%rbp)
	movsd	%xmm1, -32(%rbp)
.Ltmp13:
	.loc	17 38 14 prologue_end           # ./../../common/polybenchUtilFuncts.h:38:14
	movsd	-16(%rbp), %xmm0                # xmm0 = mem[0],zero
	cvtsd2ss	%xmm0, %xmm0
	.loc	17 38 7 is_stmt 0               # ./../../common/polybenchUtilFuncts.h:38:7
	callq	_Z6absValf@PLT
	cvtss2sd	%xmm0, %xmm0
	.loc	17 38 28                        # ./../../common/polybenchUtilFuncts.h:38:28
	movsd	.LCPI2_0(%rip), %xmm1           # xmm1 = mem[0],zero
	.loc	17 38 20                        # ./../../common/polybenchUtilFuncts.h:38:20
	ucomisd	%xmm0, %xmm1
	.loc	17 38 28                        # ./../../common/polybenchUtilFuncts.h:38:28
	jbe	.LBB2_3
# %bb.1:                                # %land.lhs.true
	.loc	17 38 39                        # ./../../common/polybenchUtilFuncts.h:38:39
	movsd	-32(%rbp), %xmm0                # xmm0 = mem[0],zero
	cvtsd2ss	%xmm0, %xmm0
	.loc	17 38 32                        # ./../../common/polybenchUtilFuncts.h:38:32
	callq	_Z6absValf@PLT
	cvtss2sd	%xmm0, %xmm0
.Ltmp14:
	.loc	17 38 6                         # ./../../common/polybenchUtilFuncts.h:38:6
	movsd	.LCPI2_0(%rip), %xmm1           # xmm1 = mem[0],zero
.Ltmp15:
	.loc	17 38 45                        # ./../../common/polybenchUtilFuncts.h:38:45
	ucomisd	%xmm0, %xmm1
.Ltmp16:
	.loc	17 38 6                         # ./../../common/polybenchUtilFuncts.h:38:6
	jbe	.LBB2_3
# %bb.2:                                # %if.then
.Ltmp17:
	.loc	17 40 3 is_stmt 1               # ./../../common/polybenchUtilFuncts.h:40:3
	xorps	%xmm0, %xmm0
	movss	%xmm0, -4(%rbp)
	jmp	.LBB2_4
.Ltmp18:
.LBB2_3:                                # %if.else
	.loc	17 45 38                        # ./../../common/polybenchUtilFuncts.h:45:38
	movsd	-16(%rbp), %xmm0                # xmm0 = mem[0],zero
	.loc	17 45 43 is_stmt 0              # ./../../common/polybenchUtilFuncts.h:45:43
	subsd	-32(%rbp), %xmm0
	.loc	17 45 38                        # ./../../common/polybenchUtilFuncts.h:45:38
	cvtsd2ss	%xmm0, %xmm0
	.loc	17 45 31                        # ./../../common/polybenchUtilFuncts.h:45:31
	callq	_Z6absValf@PLT
	movss	%xmm0, -20(%rbp)                # 4-byte Spill
	.loc	17 45 65                        # ./../../common/polybenchUtilFuncts.h:45:65
	movsd	.LCPI2_2(%rip), %xmm0           # xmm0 = mem[0],zero
	addsd	-16(%rbp), %xmm0
	.loc	17 45 60                        # ./../../common/polybenchUtilFuncts.h:45:60
	cvtsd2ss	%xmm0, %xmm0
	.loc	17 45 53                        # ./../../common/polybenchUtilFuncts.h:45:53
	callq	_Z6absValf@PLT
	movss	-20(%rbp), %xmm1                # 4-byte Reload
                                        # xmm1 = mem[0],zero,zero,zero
	.loc	17 45 51                        # ./../../common/polybenchUtilFuncts.h:45:51
	divss	%xmm0, %xmm1
	.loc	17 45 24                        # ./../../common/polybenchUtilFuncts.h:45:24
	movaps	%xmm1, %xmm0
	callq	_Z6absValf@PLT
	.loc	17 45 21                        # ./../../common/polybenchUtilFuncts.h:45:21
	movss	.LCPI2_1(%rip), %xmm1           # xmm1 = mem[0],zero,zero,zero
	mulss	%xmm0, %xmm1
	.loc	17 45 7                         # ./../../common/polybenchUtilFuncts.h:45:7
	movss	%xmm1, -4(%rbp)
.Ltmp19:
.LBB2_4:                                # %return
	.loc	17 47 1 is_stmt 1               # ./../../common/polybenchUtilFuncts.h:47:1
	movss	-4(%rbp), %xmm0                 # xmm0 = mem[0],zero,zero,zero
	addq	$32, %rsp
	popq	%rbp
	.cfi_def_cfa %rsp, 8
	retq
.Ltmp20:
.Lfunc_end2:
	.size	_Z11percentDiffdd, .Lfunc_end2-_Z11percentDiffdd
	.cfi_endproc
                                        # -- End function
	.section	.rodata.cst8,"aM",@progbits,8
	.p2align	3                               # -- Begin function computeBandwidth
.LCPI3_0:
	.quad	0x3e112e0be826d695              # double 1.0000000000000001E-9
.LCPI3_3:
	.quad	0x41cdcd6500000000              # double 1.0E+9
	.section	.rodata.cst16,"aM",@progbits,16
	.p2align	4
.LCPI3_1:
	.long	1127219200                      # 0x43300000
	.long	1160773632                      # 0x45300000
	.long	0                               # 0x0
	.long	0                               # 0x0
.LCPI3_2:
	.quad	0x4330000000000000              # double 4503599627370496
	.quad	0x4530000000000000              # double 1.9342813113834067E+25
	.text
	.globl	computeBandwidth
	.p2align	4, 0x90
	.type	computeBandwidth,@function
computeBandwidth:                       # @computeBandwidth
.Lfunc_begin3:
	.loc	1 18 0                          # ./../../../src/bandwidth_helpers.cu:18:0
	.cfi_startproc
# %bb.0:                                # %entry
	pushq	%rbp
	.cfi_def_cfa_offset 16
	.cfi_offset %rbp, -16
	movq	%rsp, %rbp
	.cfi_def_cfa_register %rbp
	subq	$32, %rsp
.Ltmp21:
	.loc	1 20 5 prologue_end             # ./../../../src/bandwidth_helpers.cu:20:5
	leaq	total_bytes_accessed(%rip), %rsi
	leaq	-16(%rbp), %rdi
	movl	$8, %edx
	xorl	%ecx, %ecx
	movl	$2, %r8d
	callq	_ZL20cudaMemcpyFromSymbolIyE9cudaErrorPvRKT_mm14cudaMemcpyKind
	.loc	1 21 5                          # ./../../../src/bandwidth_helpers.cu:21:5
	leaq	total_memory_time_ns(%rip), %rsi
	leaq	-8(%rbp), %rdi
	movl	$8, %edx
	xorl	%ecx, %ecx
	movl	$2, %r8d
	callq	_ZL20cudaMemcpyFromSymbolIyE9cudaErrorPvRKT_mm14cudaMemcpyKind
	.loc	1 22 33                         # ./../../../src/bandwidth_helpers.cu:22:33
	movaps	.LCPI3_1(%rip), %xmm0           # xmm0 = [1127219200,1160773632,0,0]
	movq	-16(%rbp), %xmm1                # xmm1 = mem[0],zero
	punpckldq	%xmm0, %xmm1            # xmm1 = xmm1[0],xmm0[0],xmm1[1],xmm0[1]
	movapd	.LCPI3_2(%rip), %xmm2           # xmm2 = [4.503599627370496E+15,1.9342813113834067E+25]
	subpd	%xmm2, %xmm1
	movaps	%xmm1, %xmm3
	unpckhpd	%xmm3, %xmm3                    # xmm3 = xmm3[1,1]
	addsd	%xmm1, %xmm3
	movsd	.LCPI3_3(%rip), %xmm1           # xmm1 = mem[0],zero
	.loc	1 22 39 is_stmt 0               # ./../../../src/bandwidth_helpers.cu:22:39
	divsd	%xmm1, %xmm3
	.loc	1 22 49                         # ./../../../src/bandwidth_helpers.cu:22:49
	movq	-8(%rbp), %xmm1                 # xmm1 = mem[0],zero
	punpckldq	%xmm0, %xmm1            # xmm1 = xmm1[0],xmm0[0],xmm1[1],xmm0[1]
	subpd	%xmm2, %xmm1
	movaps	%xmm1, %xmm0
	unpckhpd	%xmm0, %xmm0                    # xmm0 = xmm0[1,1]
	addsd	%xmm1, %xmm0
	.loc	1 22 57                         # ./../../../src/bandwidth_helpers.cu:22:57
	movsd	.LCPI3_0(%rip), %xmm1           # xmm1 = mem[0],zero
	mulsd	%xmm1, %xmm0
	.loc	1 22 46                         # ./../../../src/bandwidth_helpers.cu:22:46
	divsd	%xmm0, %xmm3
	.loc	1 22 12                         # ./../../../src/bandwidth_helpers.cu:22:12
	movsd	%xmm3, -24(%rbp)
	.loc	1 24 45 is_stmt 1               # ./../../../src/bandwidth_helpers.cu:24:45
	movsd	-24(%rbp), %xmm0                # xmm0 = mem[0],zero
	.loc	1 24 5 is_stmt 0                # ./../../../src/bandwidth_helpers.cu:24:5
	leaq	.L.str.1(%rip), %rdi
	movb	$1, %al
	callq	printf@PLT
	.loc	1 25 50 is_stmt 1               # ./../../../src/bandwidth_helpers.cu:25:50
	movq	-16(%rbp), %rsi
	.loc	1 25 5 is_stmt 0                # ./../../../src/bandwidth_helpers.cu:25:5
	leaq	.L.str.2(%rip), %rdi
	movb	$0, %al
	callq	printf@PLT
	.loc	1 26 39 is_stmt 1               # ./../../../src/bandwidth_helpers.cu:26:39
	movq	-8(%rbp), %rsi
	.loc	1 26 5 is_stmt 0                # ./../../../src/bandwidth_helpers.cu:26:5
	leaq	.L.str.3(%rip), %rdi
	movb	$0, %al
	callq	printf@PLT
	.loc	1 27 1 is_stmt 1                # ./../../../src/bandwidth_helpers.cu:27:1
	addq	$32, %rsp
	popq	%rbp
	.cfi_def_cfa %rsp, 8
	retq
.Ltmp22:
.Lfunc_end3:
	.size	computeBandwidth, .Lfunc_end3-computeBandwidth
	.cfi_endproc
                                        # -- End function
	.p2align	4, 0x90                         # -- Begin function _ZL20cudaMemcpyFromSymbolIyE9cudaErrorPvRKT_mm14cudaMemcpyKind
	.type	_ZL20cudaMemcpyFromSymbolIyE9cudaErrorPvRKT_mm14cudaMemcpyKind,@function
_ZL20cudaMemcpyFromSymbolIyE9cudaErrorPvRKT_mm14cudaMemcpyKind: # @_ZL20cudaMemcpyFromSymbolIyE9cudaErrorPvRKT_mm14cudaMemcpyKind
.Lfunc_begin4:
	.file	18 "/usr/local/cuda-11.5/include" "cuda_runtime.h" md5 0xbf6e87aee265d6be210a6ac85bcbefb2
	.loc	18 830 0                        # /usr/local/cuda-11.5/include/cuda_runtime.h:830:0
	.cfi_startproc
# %bb.0:                                # %entry
	pushq	%rbp
	.cfi_def_cfa_offset 16
	.cfi_offset %rbp, -16
	movq	%rsp, %rbp
	.cfi_def_cfa_register %rbp
	subq	$48, %rsp
	movq	%rdi, -40(%rbp)
	movq	%rsi, -32(%rbp)
	movq	%rdx, -24(%rbp)
	movq	%rcx, -16(%rbp)
	movl	%r8d, -4(%rbp)
.Ltmp23:
	.loc	18 831 33 prologue_end          # /usr/local/cuda-11.5/include/cuda_runtime.h:831:33
	movq	-40(%rbp), %rdi
	.loc	18 831 52 is_stmt 0             # /usr/local/cuda-11.5/include/cuda_runtime.h:831:52
	movq	-32(%rbp), %rsi
	.loc	18 831 60                       # /usr/local/cuda-11.5/include/cuda_runtime.h:831:60
	movq	-24(%rbp), %rdx
	.loc	18 831 67                       # /usr/local/cuda-11.5/include/cuda_runtime.h:831:67
	movq	-16(%rbp), %rcx
	.loc	18 831 75                       # /usr/local/cuda-11.5/include/cuda_runtime.h:831:75
	movl	-4(%rbp), %r8d
	.loc	18 831 10                       # /usr/local/cuda-11.5/include/cuda_runtime.h:831:10
	callq	cudaMemcpyFromSymbol@PLT
	.loc	18 831 3                        # /usr/local/cuda-11.5/include/cuda_runtime.h:831:3
	addq	$48, %rsp
	popq	%rbp
	.cfi_def_cfa %rsp, 8
	retq
.Ltmp24:
.Lfunc_end4:
	.size	_ZL20cudaMemcpyFromSymbolIyE9cudaErrorPvRKT_mm14cudaMemcpyKind, .Lfunc_end4-_ZL20cudaMemcpyFromSymbolIyE9cudaErrorPvRKT_mm14cudaMemcpyKind
	.cfi_endproc
                                        # -- End function
	.section	.rodata.cst16,"aM",@progbits,16
	.p2align	4                               # -- Begin function printComputeIntensity
.LCPI5_0:
	.long	1127219200                      # 0x43300000
	.long	1160773632                      # 0x45300000
	.long	0                               # 0x0
	.long	0                               # 0x0
.LCPI5_1:
	.quad	0x4330000000000000              # double 4503599627370496
	.quad	0x4530000000000000              # double 1.9342813113834067E+25
	.text
	.globl	printComputeIntensity
	.p2align	4, 0x90
	.type	printComputeIntensity,@function
printComputeIntensity:                  # @printComputeIntensity
.Lfunc_begin5:
	.loc	2 15 0 is_stmt 1                # ./../../../src/compute_intensity.cu:15:0
	.cfi_startproc
# %bb.0:                                # %entry
	pushq	%rbp
	.cfi_def_cfa_offset 16
	.cfi_offset %rbp, -16
	movq	%rsp, %rbp
	.cfi_def_cfa_register %rbp
	subq	$32, %rsp
.Ltmp25:
	.loc	2 17 26 prologue_end            # ./../../../src/compute_intensity.cu:17:26
	leaq	-24(%rbp), %rdi
	.loc	2 17 5 is_stmt 0                # ./../../../src/compute_intensity.cu:17:5
	leaq	total_flops(%rip), %rsi
	movl	$8, %edx
	xorl	%ecx, %ecx
	movl	$2, %r8d
	callq	_ZL20cudaMemcpyFromSymbolIyE9cudaErrorPvRKT_mm14cudaMemcpyKind
	.loc	2 18 26 is_stmt 1               # ./../../../src/compute_intensity.cu:18:26
	leaq	-8(%rbp), %rdi
	.loc	2 18 5 is_stmt 0                # ./../../../src/compute_intensity.cu:18:5
	leaq	total_bytes(%rip), %rsi
	movl	$8, %edx
	xorl	%ecx, %ecx
	movl	$2, %r8d
	callq	_ZL20cudaMemcpyFromSymbolIyE9cudaErrorPvRKT_mm14cudaMemcpyKind
	.loc	2 20 5 is_stmt 1                # ./../../../src/compute_intensity.cu:20:5
	leaq	.L.str.4(%rip), %rdi
	movb	$0, %al
	callq	printf@PLT
	.loc	2 21 35                         # ./../../../src/compute_intensity.cu:21:35
	movq	-24(%rbp), %rsi
	.loc	2 21 5 is_stmt 0                # ./../../../src/compute_intensity.cu:21:5
	leaq	.L.str.5(%rip), %rdi
	movb	$0, %al
	callq	printf@PLT
	.loc	2 22 35 is_stmt 1               # ./../../../src/compute_intensity.cu:22:35
	movq	-8(%rbp), %rsi
	.loc	2 22 5 is_stmt 0                # ./../../../src/compute_intensity.cu:22:5
	leaq	.L.str.6(%rip), %rdi
	movb	$0, %al
	callq	printf@PLT
.Ltmp26:
	.loc	2 23 15 is_stmt 1               # ./../../../src/compute_intensity.cu:23:15
	cmpq	$0, -8(%rbp)
.Ltmp27:
	.loc	2 23 9 is_stmt 0                # ./../../../src/compute_intensity.cu:23:9
	jbe	.LBB5_2
# %bb.1:                                # %if.then
.Ltmp28:
	.loc	2 24 64 is_stmt 1               # ./../../../src/compute_intensity.cu:24:64
	movq	-24(%rbp), %xmm1                # xmm1 = mem[0],zero
	movaps	.LCPI5_0(%rip), %xmm2           # xmm2 = [1127219200,1160773632,0,0]
	punpckldq	%xmm2, %xmm1            # xmm1 = xmm1[0],xmm2[0],xmm1[1],xmm2[1]
	movapd	.LCPI5_1(%rip), %xmm3           # xmm3 = [4.503599627370496E+15,1.9342813113834067E+25]
	subpd	%xmm3, %xmm1
	movaps	%xmm1, %xmm0
	unpckhpd	%xmm0, %xmm0                    # xmm0 = xmm0[1,1]
	addsd	%xmm1, %xmm0
	.loc	2 24 70 is_stmt 0               # ./../../../src/compute_intensity.cu:24:70
	movq	-8(%rbp), %xmm1                 # xmm1 = mem[0],zero
	punpckldq	%xmm2, %xmm1            # xmm1 = xmm1[0],xmm2[0],xmm1[1],xmm2[1]
	subpd	%xmm3, %xmm1
	movaps	%xmm1, %xmm2
	unpckhpd	%xmm2, %xmm2                    # xmm2 = xmm2[1,1]
	addsd	%xmm1, %xmm2
	.loc	2 24 69                         # ./../../../src/compute_intensity.cu:24:69
	divsd	%xmm2, %xmm0
	.loc	2 24 9                          # ./../../../src/compute_intensity.cu:24:9
	leaq	.L.str.7(%rip), %rdi
	movb	$1, %al
	callq	printf@PLT
.Ltmp29:
.LBB5_2:                                # %if.end
	.loc	2 28 24 is_stmt 1               # ./../../../src/compute_intensity.cu:28:24
	movq	$0, -16(%rbp)
	.loc	2 29 37                         # ./../../../src/compute_intensity.cu:29:37
	leaq	-16(%rbp), %rsi
	.loc	2 29 5 is_stmt 0                # ./../../../src/compute_intensity.cu:29:5
	leaq	total_bytes(%rip), %rdi
	movl	$8, %edx
	xorl	%ecx, %ecx
	movl	$1, %r8d
	callq	_ZL18cudaMemcpyToSymbolIyE9cudaErrorRKT_PKvmm14cudaMemcpyKind
	.loc	2 30 37 is_stmt 1               # ./../../../src/compute_intensity.cu:30:37
	leaq	-16(%rbp), %rsi
	.loc	2 30 5 is_stmt 0                # ./../../../src/compute_intensity.cu:30:5
	leaq	total_flops(%rip), %rdi
	movl	$8, %edx
	xorl	%ecx, %ecx
	movl	$1, %r8d
	callq	_ZL18cudaMemcpyToSymbolIyE9cudaErrorRKT_PKvmm14cudaMemcpyKind
	.loc	2 31 1 is_stmt 1                # ./../../../src/compute_intensity.cu:31:1
	addq	$32, %rsp
	popq	%rbp
	.cfi_def_cfa %rsp, 8
	retq
.Ltmp30:
.Lfunc_end5:
	.size	printComputeIntensity, .Lfunc_end5-printComputeIntensity
	.cfi_endproc
                                        # -- End function
	.p2align	4, 0x90                         # -- Begin function _ZL18cudaMemcpyToSymbolIyE9cudaErrorRKT_PKvmm14cudaMemcpyKind
	.type	_ZL18cudaMemcpyToSymbolIyE9cudaErrorRKT_PKvmm14cudaMemcpyKind,@function
_ZL18cudaMemcpyToSymbolIyE9cudaErrorRKT_PKvmm14cudaMemcpyKind: # @_ZL18cudaMemcpyToSymbolIyE9cudaErrorRKT_PKvmm14cudaMemcpyKind
.Lfunc_begin6:
	.loc	18 728 0                        # /usr/local/cuda-11.5/include/cuda_runtime.h:728:0
	.cfi_startproc
# %bb.0:                                # %entry
	pushq	%rbp
	.cfi_def_cfa_offset 16
	.cfi_offset %rbp, -16
	movq	%rsp, %rbp
	.cfi_def_cfa_register %rbp
	subq	$48, %rsp
	movq	%rdi, -40(%rbp)
	movq	%rsi, -32(%rbp)
	movq	%rdx, -24(%rbp)
	movq	%rcx, -16(%rbp)
	movl	%r8d, -4(%rbp)
.Ltmp31:
	.loc	18 729 45 prologue_end          # /usr/local/cuda-11.5/include/cuda_runtime.h:729:45
	movq	-40(%rbp), %rdi
	.loc	18 729 53 is_stmt 0             # /usr/local/cuda-11.5/include/cuda_runtime.h:729:53
	movq	-32(%rbp), %rsi
	.loc	18 729 58                       # /usr/local/cuda-11.5/include/cuda_runtime.h:729:58
	movq	-24(%rbp), %rdx
	.loc	18 729 65                       # /usr/local/cuda-11.5/include/cuda_runtime.h:729:65
	movq	-16(%rbp), %rcx
	.loc	18 729 73                       # /usr/local/cuda-11.5/include/cuda_runtime.h:729:73
	movl	-4(%rbp), %r8d
	.loc	18 729 10                       # /usr/local/cuda-11.5/include/cuda_runtime.h:729:10
	callq	cudaMemcpyToSymbol@PLT
	.loc	18 729 3                        # /usr/local/cuda-11.5/include/cuda_runtime.h:729:3
	addq	$48, %rsp
	popq	%rbp
	.cfi_def_cfa %rsp, 8
	retq
.Ltmp32:
.Lfunc_end6:
	.size	_ZL18cudaMemcpyToSymbolIyE9cudaErrorRKT_PKvmm14cudaMemcpyKind, .Lfunc_end6-_ZL18cudaMemcpyToSymbolIyE9cudaErrorRKT_PKvmm14cudaMemcpyKind
	.cfi_endproc
                                        # -- End function
	.section	.rodata.cst4,"aM",@progbits,4
	.p2align	2                               # -- Begin function _Z11init_arraysPfS_
.LCPI7_0:
	.long	0x44000000                      # float 512
.LCPI7_1:
	.long	0x40000000                      # float 2
	.text
	.globl	_Z11init_arraysPfS_
	.p2align	4, 0x90
	.type	_Z11init_arraysPfS_,@function
_Z11init_arraysPfS_:                    # @_Z11init_arraysPfS_
.Lfunc_begin7:
	.loc	0 46 0 is_stmt 1                # syrk.cu:46:0
	.cfi_startproc
# %bb.0:                                # %entry
	pushq	%rbp
	.cfi_def_cfa_offset 16
	.cfi_offset %rbp, -16
	movq	%rsp, %rbp
	.cfi_def_cfa_register %rbp
	movq	%rdi, -24(%rbp)
	movq	%rsi, -16(%rbp)
.Ltmp33:
	.loc	0 49 9 prologue_end             # syrk.cu:49:9
	movl	$0, -8(%rbp)
.LBB7_1:                                # %for.cond
                                        # =>This Loop Header: Depth=1
                                        #     Child Loop BB7_3 Depth 2
                                        #     Child Loop BB7_7 Depth 2
.Ltmp34:
	.loc	0 49 16 is_stmt 0               # syrk.cu:49:16
	cmpl	$512, -8(%rbp)                  # imm = 0x200
.Ltmp35:
	.loc	0 49 2                          # syrk.cu:49:2
	jge	.LBB7_12
# %bb.2:                                # %for.body
                                        #   in Loop: Header=BB7_1 Depth=1
.Ltmp36:
	.loc	0 51 10 is_stmt 1               # syrk.cu:51:10
	movl	$0, -4(%rbp)
.LBB7_3:                                # %for.cond1
                                        #   Parent Loop BB7_1 Depth=1
                                        # =>  This Inner Loop Header: Depth=2
.Ltmp37:
	.loc	0 51 17 is_stmt 0               # syrk.cu:51:17
	cmpl	$512, -4(%rbp)                  # imm = 0x200
.Ltmp38:
	.loc	0 51 3                          # syrk.cu:51:3
	jge	.LBB7_6
# %bb.4:                                # %for.body3
                                        #   in Loop: Header=BB7_3 Depth=2
.Ltmp39:
	.loc	0 53 30 is_stmt 1               # syrk.cu:53:30
	cvtsi2ssl	-8(%rbp), %xmm0
	.loc	0 53 32 is_stmt 0               # syrk.cu:53:32
	cvtsi2ssl	-4(%rbp), %xmm1
	.loc	0 53 31                         # syrk.cu:53:31
	mulss	%xmm1, %xmm0
	.loc	0 53 35                         # syrk.cu:53:35
	movss	.LCPI7_0(%rip), %xmm1           # xmm1 = mem[0],zero,zero,zero
	divss	%xmm1, %xmm0
	.loc	0 53 4                          # syrk.cu:53:4
	movq	-24(%rbp), %rax
	.loc	0 53 6                          # syrk.cu:53:6
	movl	-8(%rbp), %ecx
	.loc	0 53 7                          # syrk.cu:53:7
	shll	$9, %ecx
	.loc	0 53 10                         # syrk.cu:53:10
	addl	-4(%rbp), %ecx
	.loc	0 53 4                          # syrk.cu:53:4
	movslq	%ecx, %rcx
	.loc	0 53 15                         # syrk.cu:53:15
	movss	%xmm0, (%rax,%rcx,4)
.Ltmp40:
# %bb.5:                                # %for.inc
                                        #   in Loop: Header=BB7_3 Depth=2
	.loc	0 51 23 is_stmt 1               # syrk.cu:51:23
	movl	-4(%rbp), %eax
	addl	$1, %eax
	movl	%eax, -4(%rbp)
	.loc	0 51 3 is_stmt 0                # syrk.cu:51:3
	jmp	.LBB7_3
.Ltmp41:
.LBB7_6:                                # %for.end
                                        #   in Loop: Header=BB7_1 Depth=1
	.loc	0 56 10 is_stmt 1               # syrk.cu:56:10
	movl	$0, -4(%rbp)
.LBB7_7:                                # %for.cond6
                                        #   Parent Loop BB7_1 Depth=1
                                        # =>  This Inner Loop Header: Depth=2
.Ltmp42:
	.loc	0 56 17 is_stmt 0               # syrk.cu:56:17
	cmpl	$512, -4(%rbp)                  # imm = 0x200
.Ltmp43:
	.loc	0 56 3                          # syrk.cu:56:3
	jge	.LBB7_10
# %bb.8:                                # %for.body8
                                        #   in Loop: Header=BB7_7 Depth=2
.Ltmp44:
	.loc	0 58 30 is_stmt 1               # syrk.cu:58:30
	cvtsi2ssl	-8(%rbp), %xmm0
	.loc	0 58 32 is_stmt 0               # syrk.cu:58:32
	cvtsi2ssl	-4(%rbp), %xmm1
	.loc	0 58 34                         # syrk.cu:58:34
	mulss	%xmm1, %xmm0
	movss	.LCPI7_1(%rip), %xmm1           # xmm1 = mem[0],zero,zero,zero
	addss	%xmm1, %xmm0
	.loc	0 58 39                         # syrk.cu:58:39
	movss	.LCPI7_0(%rip), %xmm1           # xmm1 = mem[0],zero,zero,zero
	divss	%xmm1, %xmm0
	.loc	0 58 4                          # syrk.cu:58:4
	movq	-16(%rbp), %rax
	.loc	0 58 6                          # syrk.cu:58:6
	movl	-8(%rbp), %ecx
	.loc	0 58 7                          # syrk.cu:58:7
	shll	$9, %ecx
	.loc	0 58 10                         # syrk.cu:58:10
	addl	-4(%rbp), %ecx
	.loc	0 58 4                          # syrk.cu:58:4
	movslq	%ecx, %rcx
	.loc	0 58 15                         # syrk.cu:58:15
	movss	%xmm0, (%rax,%rcx,4)
.Ltmp45:
# %bb.9:                                # %for.inc17
                                        #   in Loop: Header=BB7_7 Depth=2
	.loc	0 56 23 is_stmt 1               # syrk.cu:56:23
	movl	-4(%rbp), %eax
	addl	$1, %eax
	movl	%eax, -4(%rbp)
	.loc	0 56 3 is_stmt 0                # syrk.cu:56:3
	jmp	.LBB7_7
.Ltmp46:
.LBB7_10:                               # %for.end19
                                        #   in Loop: Header=BB7_1 Depth=1
	.loc	0 60 2 is_stmt 1                # syrk.cu:60:2
	jmp	.LBB7_11
.Ltmp47:
.LBB7_11:                               # %for.inc20
                                        #   in Loop: Header=BB7_1 Depth=1
	.loc	0 49 22                         # syrk.cu:49:22
	movl	-8(%rbp), %eax
	addl	$1, %eax
	movl	%eax, -8(%rbp)
	.loc	0 49 2 is_stmt 0                # syrk.cu:49:2
	jmp	.LBB7_1
.Ltmp48:
.LBB7_12:                               # %for.end22
	.loc	0 61 1 is_stmt 1                # syrk.cu:61:1
	popq	%rbp
	.cfi_def_cfa %rsp, 8
	retq
.Ltmp49:
.Lfunc_end7:
	.size	_Z11init_arraysPfS_, .Lfunc_end7-_Z11init_arraysPfS_
	.cfi_endproc
                                        # -- End function
	.section	.rodata.cst4,"aM",@progbits,4
	.p2align	2                               # -- Begin function _Z4syrkPfS_
.LCPI8_0:
	.long	0x46424c00                      # float 12435
.LCPI8_1:
	.long	0x458e1000                      # float 4546
	.text
	.globl	_Z4syrkPfS_
	.p2align	4, 0x90
	.type	_Z4syrkPfS_,@function
_Z4syrkPfS_:                            # @_Z4syrkPfS_
.Lfunc_begin8:
	.loc	0 65 0                          # syrk.cu:65:0
	.cfi_startproc
# %bb.0:                                # %entry
	pushq	%rbp
	.cfi_def_cfa_offset 16
	.cfi_offset %rbp, -16
	movq	%rsp, %rbp
	.cfi_def_cfa_register %rbp
	movq	%rdi, -32(%rbp)
	movq	%rsi, -24(%rbp)
.Ltmp50:
	.loc	0 69 9 prologue_end             # syrk.cu:69:9
	movl	$0, -8(%rbp)
.LBB8_1:                                # %for.cond
                                        # =>This Loop Header: Depth=1
                                        #     Child Loop BB8_3 Depth 2
.Ltmp51:
	.loc	0 69 16 is_stmt 0               # syrk.cu:69:16
	cmpl	$512, -8(%rbp)                  # imm = 0x200
.Ltmp52:
	.loc	0 69 2                          # syrk.cu:69:2
	jge	.LBB8_8
# %bb.2:                                # %for.body
                                        #   in Loop: Header=BB8_1 Depth=1
.Ltmp53:
	.loc	0 71 10 is_stmt 1               # syrk.cu:71:10
	movl	$0, -4(%rbp)
.LBB8_3:                                # %for.cond1
                                        #   Parent Loop BB8_1 Depth=1
                                        # =>  This Inner Loop Header: Depth=2
.Ltmp54:
	.loc	0 71 17 is_stmt 0               # syrk.cu:71:17
	cmpl	$512, -4(%rbp)                  # imm = 0x200
.Ltmp55:
	.loc	0 71 3                          # syrk.cu:71:3
	jge	.LBB8_6
# %bb.4:                                # %for.body3
                                        #   in Loop: Header=BB8_3 Depth=2
.Ltmp56:
	.loc	0 73 4 is_stmt 1                # syrk.cu:73:4
	movq	-24(%rbp), %rax
	.loc	0 73 6 is_stmt 0                # syrk.cu:73:6
	movl	-8(%rbp), %ecx
	.loc	0 73 7                          # syrk.cu:73:7
	shll	$9, %ecx
	.loc	0 73 10                         # syrk.cu:73:10
	addl	-4(%rbp), %ecx
	.loc	0 73 4                          # syrk.cu:73:4
	movslq	%ecx, %rcx
	.loc	0 73 15                         # syrk.cu:73:15
	movss	.LCPI8_1(%rip), %xmm0           # xmm0 = mem[0],zero,zero,zero
	mulss	(%rax,%rcx,4), %xmm0
	movss	%xmm0, (%rax,%rcx,4)
.Ltmp57:
# %bb.5:                                # %for.inc
                                        #   in Loop: Header=BB8_3 Depth=2
	.loc	0 71 23 is_stmt 1               # syrk.cu:71:23
	movl	-4(%rbp), %eax
	addl	$1, %eax
	movl	%eax, -4(%rbp)
	.loc	0 71 3 is_stmt 0                # syrk.cu:71:3
	jmp	.LBB8_3
.Ltmp58:
.LBB8_6:                                # %for.end
                                        #   in Loop: Header=BB8_1 Depth=1
	.loc	0 75 2 is_stmt 1                # syrk.cu:75:2
	jmp	.LBB8_7
.Ltmp59:
.LBB8_7:                                # %for.inc5
                                        #   in Loop: Header=BB8_1 Depth=1
	.loc	0 69 22                         # syrk.cu:69:22
	movl	-8(%rbp), %eax
	addl	$1, %eax
	movl	%eax, -8(%rbp)
	.loc	0 69 2 is_stmt 0                # syrk.cu:69:2
	jmp	.LBB8_1
.Ltmp60:
.LBB8_8:                                # %for.end7
	.loc	0 77 9 is_stmt 1                # syrk.cu:77:9
	movl	$0, -8(%rbp)
.LBB8_9:                                # %for.cond8
                                        # =>This Loop Header: Depth=1
                                        #     Child Loop BB8_11 Depth 2
                                        #       Child Loop BB8_13 Depth 3
.Ltmp61:
	.loc	0 77 16 is_stmt 0               # syrk.cu:77:16
	cmpl	$512, -8(%rbp)                  # imm = 0x200
.Ltmp62:
	.loc	0 77 2                          # syrk.cu:77:2
	jge	.LBB8_20
# %bb.10:                               # %for.body10
                                        #   in Loop: Header=BB8_9 Depth=1
.Ltmp63:
	.loc	0 79 10 is_stmt 1               # syrk.cu:79:10
	movl	$0, -4(%rbp)
.LBB8_11:                               # %for.cond11
                                        #   Parent Loop BB8_9 Depth=1
                                        # =>  This Loop Header: Depth=2
                                        #       Child Loop BB8_13 Depth 3
.Ltmp64:
	.loc	0 79 17 is_stmt 0               # syrk.cu:79:17
	cmpl	$512, -4(%rbp)                  # imm = 0x200
.Ltmp65:
	.loc	0 79 3                          # syrk.cu:79:3
	jge	.LBB8_18
# %bb.12:                               # %for.body13
                                        #   in Loop: Header=BB8_11 Depth=2
.Ltmp66:
	.loc	0 81 11 is_stmt 1               # syrk.cu:81:11
	movl	$0, -12(%rbp)
.LBB8_13:                               # %for.cond14
                                        #   Parent Loop BB8_9 Depth=1
                                        #     Parent Loop BB8_11 Depth=2
                                        # =>    This Inner Loop Header: Depth=3
.Ltmp67:
	.loc	0 81 18 is_stmt 0               # syrk.cu:81:18
	cmpl	$512, -12(%rbp)                 # imm = 0x200
.Ltmp68:
	.loc	0 81 4                          # syrk.cu:81:4
	jge	.LBB8_16
# %bb.14:                               # %for.body16
                                        #   in Loop: Header=BB8_13 Depth=3
.Ltmp69:
	.loc	0 83 27 is_stmt 1               # syrk.cu:83:27
	movq	-32(%rbp), %rax
	.loc	0 83 29 is_stmt 0               # syrk.cu:83:29
	movl	-8(%rbp), %ecx
	.loc	0 83 30                         # syrk.cu:83:30
	shll	$9, %ecx
	.loc	0 83 33                         # syrk.cu:83:33
	addl	-12(%rbp), %ecx
	.loc	0 83 27                         # syrk.cu:83:27
	movslq	%ecx, %rcx
	.loc	0 83 25                         # syrk.cu:83:25
	movss	.LCPI8_0(%rip), %xmm0           # xmm0 = mem[0],zero,zero,zero
	mulss	(%rax,%rcx,4), %xmm0
	.loc	0 83 40                         # syrk.cu:83:40
	movq	-32(%rbp), %rax
	.loc	0 83 42                         # syrk.cu:83:42
	movl	-4(%rbp), %ecx
	.loc	0 83 43                         # syrk.cu:83:43
	shll	$9, %ecx
	.loc	0 83 46                         # syrk.cu:83:46
	addl	-12(%rbp), %ecx
	.loc	0 83 40                         # syrk.cu:83:40
	movslq	%ecx, %rcx
	movss	(%rax,%rcx,4), %xmm1            # xmm1 = mem[0],zero,zero,zero
	.loc	0 83 5                          # syrk.cu:83:5
	movq	-24(%rbp), %rax
	.loc	0 83 7                          # syrk.cu:83:7
	movl	-8(%rbp), %ecx
	.loc	0 83 8                          # syrk.cu:83:8
	shll	$9, %ecx
	.loc	0 83 11                         # syrk.cu:83:11
	addl	-4(%rbp), %ecx
	.loc	0 83 5                          # syrk.cu:83:5
	movslq	%ecx, %rcx
	.loc	0 83 16                         # syrk.cu:83:16
	movss	(%rax,%rcx,4), %xmm2            # xmm2 = mem[0],zero,zero,zero
	mulss	%xmm1, %xmm0
	addss	%xmm2, %xmm0
	movss	%xmm0, (%rax,%rcx,4)
.Ltmp70:
# %bb.15:                               # %for.inc31
                                        #   in Loop: Header=BB8_13 Depth=3
	.loc	0 81 24 is_stmt 1               # syrk.cu:81:24
	movl	-12(%rbp), %eax
	addl	$1, %eax
	movl	%eax, -12(%rbp)
	.loc	0 81 4 is_stmt 0                # syrk.cu:81:4
	jmp	.LBB8_13
.Ltmp71:
.LBB8_16:                               # %for.end33
                                        #   in Loop: Header=BB8_11 Depth=2
	.loc	0 85 3 is_stmt 1                # syrk.cu:85:3
	jmp	.LBB8_17
.Ltmp72:
.LBB8_17:                               # %for.inc34
                                        #   in Loop: Header=BB8_11 Depth=2
	.loc	0 79 23                         # syrk.cu:79:23
	movl	-4(%rbp), %eax
	addl	$1, %eax
	movl	%eax, -4(%rbp)
	.loc	0 79 3 is_stmt 0                # syrk.cu:79:3
	jmp	.LBB8_11
.Ltmp73:
.LBB8_18:                               # %for.end36
                                        #   in Loop: Header=BB8_9 Depth=1
	.loc	0 86 2 is_stmt 1                # syrk.cu:86:2
	jmp	.LBB8_19
.Ltmp74:
.LBB8_19:                               # %for.inc37
                                        #   in Loop: Header=BB8_9 Depth=1
	.loc	0 77 22                         # syrk.cu:77:22
	movl	-8(%rbp), %eax
	addl	$1, %eax
	movl	%eax, -8(%rbp)
	.loc	0 77 2 is_stmt 0                # syrk.cu:77:2
	jmp	.LBB8_9
.Ltmp75:
.LBB8_20:                               # %for.end39
	.loc	0 87 1 is_stmt 1                # syrk.cu:87:1
	popq	%rbp
	.cfi_def_cfa %rsp, 8
	retq
.Ltmp76:
.Lfunc_end8:
	.size	_Z4syrkPfS_, .Lfunc_end8-_Z4syrkPfS_
	.cfi_endproc
                                        # -- End function
	.section	.rodata.cst8,"aM",@progbits,8
	.p2align	3                               # -- Begin function _Z14compareResultsPfS_
.LCPI9_0:
	.quad	0x3f747ae147ae147b              # double 0.0050000000000000001
	.text
	.globl	_Z14compareResultsPfS_
	.p2align	4, 0x90
	.type	_Z14compareResultsPfS_,@function
_Z14compareResultsPfS_:                 # @_Z14compareResultsPfS_
.Lfunc_begin9:
	.loc	0 91 0                          # syrk.cu:91:0
	.cfi_startproc
# %bb.0:                                # %entry
	pushq	%rbp
	.cfi_def_cfa_offset 16
	.cfi_offset %rbp, -16
	movq	%rsp, %rbp
	.cfi_def_cfa_register %rbp
	subq	$32, %rsp
	movq	%rdi, -32(%rbp)
	movq	%rsi, -24(%rbp)
.Ltmp77:
	.loc	0 93 7 prologue_end             # syrk.cu:93:7
	movl	$0, -12(%rbp)
.Ltmp78:
	.loc	0 96 8                          # syrk.cu:96:8
	movl	$0, -8(%rbp)
.LBB9_1:                                # %for.cond
                                        # =>This Loop Header: Depth=1
                                        #     Child Loop BB9_3 Depth 2
.Ltmp79:
	.loc	0 96 13 is_stmt 0               # syrk.cu:96:13
	cmpl	$512, -8(%rbp)                  # imm = 0x200
.Ltmp80:
	.loc	0 96 2                          # syrk.cu:96:2
	jge	.LBB9_10
# %bb.2:                                # %for.body
                                        #   in Loop: Header=BB9_1 Depth=1
.Ltmp81:
	.loc	0 98 9 is_stmt 1                # syrk.cu:98:9
	movl	$0, -4(%rbp)
.LBB9_3:                                # %for.cond1
                                        #   Parent Loop BB9_1 Depth=1
                                        # =>  This Inner Loop Header: Depth=2
.Ltmp82:
	.loc	0 98 14 is_stmt 0               # syrk.cu:98:14
	cmpl	$512, -4(%rbp)                  # imm = 0x200
.Ltmp83:
	.loc	0 98 3                          # syrk.cu:98:3
	jge	.LBB9_8
# %bb.4:                                # %for.body3
                                        #   in Loop: Header=BB9_3 Depth=2
.Ltmp84:
	.loc	0 100 20 is_stmt 1              # syrk.cu:100:20
	movq	-32(%rbp), %rax
	.loc	0 100 22 is_stmt 0              # syrk.cu:100:22
	movl	-8(%rbp), %ecx
	.loc	0 100 23                        # syrk.cu:100:23
	shll	$9, %ecx
	.loc	0 100 26                        # syrk.cu:100:26
	addl	-4(%rbp), %ecx
	.loc	0 100 20                        # syrk.cu:100:20
	movslq	%ecx, %rcx
	movss	(%rax,%rcx,4), %xmm0            # xmm0 = mem[0],zero,zero,zero
	cvtss2sd	%xmm0, %xmm0
	.loc	0 100 32                        # syrk.cu:100:32
	movq	-24(%rbp), %rax
	.loc	0 100 48                        # syrk.cu:100:48
	movl	-8(%rbp), %ecx
	.loc	0 100 49                        # syrk.cu:100:49
	shll	$9, %ecx
	.loc	0 100 52                        # syrk.cu:100:52
	addl	-4(%rbp), %ecx
	.loc	0 100 32                        # syrk.cu:100:32
	movslq	%ecx, %rcx
	movss	(%rax,%rcx,4), %xmm1            # xmm1 = mem[0],zero,zero,zero
	cvtss2sd	%xmm1, %xmm1
	.loc	0 100 8                         # syrk.cu:100:8
	callq	_Z11percentDiffdd@PLT
	cvtss2sd	%xmm0, %xmm0
.Ltmp85:
	.loc	0 100 8                         # syrk.cu:100:8
	movsd	.LCPI9_0(%rip), %xmm1           # xmm1 = mem[0],zero
.Ltmp86:
	.loc	0 100 58                        # syrk.cu:100:58
	ucomisd	%xmm1, %xmm0
.Ltmp87:
	.loc	0 100 8                         # syrk.cu:100:8
	jbe	.LBB9_6
# %bb.5:                                # %if.then
                                        #   in Loop: Header=BB9_3 Depth=2
.Ltmp88:
	.loc	0 102 9 is_stmt 1               # syrk.cu:102:9
	movl	-12(%rbp), %eax
	addl	$1, %eax
	movl	%eax, -12(%rbp)
.Ltmp89:
.LBB9_6:                                # %if.end
                                        #   in Loop: Header=BB9_3 Depth=2
	.loc	0 104 3                         # syrk.cu:104:3
	jmp	.LBB9_7
.Ltmp90:
.LBB9_7:                                # %for.inc
                                        #   in Loop: Header=BB9_3 Depth=2
	.loc	0 98 19                         # syrk.cu:98:19
	movl	-4(%rbp), %eax
	addl	$1, %eax
	movl	%eax, -4(%rbp)
	.loc	0 98 3 is_stmt 0                # syrk.cu:98:3
	jmp	.LBB9_3
.Ltmp91:
.LBB9_8:                                # %for.end
                                        #   in Loop: Header=BB9_1 Depth=1
	.loc	0 105 2 is_stmt 1               # syrk.cu:105:2
	jmp	.LBB9_9
.Ltmp92:
.LBB9_9:                                # %for.inc12
                                        #   in Loop: Header=BB9_1 Depth=1
	.loc	0 96 18                         # syrk.cu:96:18
	movl	-8(%rbp), %eax
	addl	$1, %eax
	movl	%eax, -8(%rbp)
	.loc	0 96 2 is_stmt 0                # syrk.cu:96:2
	jmp	.LBB9_1
.Ltmp93:
.LBB9_10:                               # %for.end14
	.loc	0 108 117 is_stmt 1             # syrk.cu:108:117
	movl	-12(%rbp), %esi
	.loc	0 108 2 is_stmt 0               # syrk.cu:108:2
	leaq	.L.str.8(%rip), %rdi
	movsd	.LCPI9_0(%rip), %xmm0           # xmm0 = mem[0],zero
	movb	$1, %al
	callq	printf@PLT
	.loc	0 109 1 is_stmt 1               # syrk.cu:109:1
	addq	$32, %rsp
	popq	%rbp
	.cfi_def_cfa %rsp, 8
	retq
.Ltmp94:
.Lfunc_end9:
	.size	_Z14compareResultsPfS_, .Lfunc_end9-_Z14compareResultsPfS_
	.cfi_endproc
                                        # -- End function
	.globl	_Z13GPU_argv_initv              # -- Begin function _Z13GPU_argv_initv
	.p2align	4, 0x90
	.type	_Z13GPU_argv_initv,@function
_Z13GPU_argv_initv:                     # @_Z13GPU_argv_initv
.Lfunc_begin10:
	.loc	0 113 0                         # syrk.cu:113:0
	.cfi_startproc
# %bb.0:                                # %entry
	pushq	%rbp
	.cfi_def_cfa_offset 16
	.cfi_offset %rbp, -16
	movq	%rsp, %rbp
	.cfi_def_cfa_register %rbp
	subq	$736, %rsp                      # imm = 0x2E0
.Ltmp95:
	.loc	0 115 2 prologue_end            # syrk.cu:115:2
	leaq	-728(%rbp), %rdi
	xorl	%esi, %esi
	callq	cudaGetDeviceProperties@PLT
	.loc	0 116 66                        # syrk.cu:116:66
	leaq	-728(%rbp), %rdx
	.loc	0 116 2 is_stmt 0               # syrk.cu:116:2
	leaq	.L.str.9(%rip), %rdi
	xorl	%esi, %esi
	movb	$0, %al
	callq	printf@PLT
	.loc	0 117 2 is_stmt 1               # syrk.cu:117:2
	xorl	%edi, %edi
	callq	cudaSetDevice@PLT
	.loc	0 119 2                         # syrk.cu:119:2
	addq	$736, %rsp                      # imm = 0x2E0
	popq	%rbp
	.cfi_def_cfa %rsp, 8
	retq
.Ltmp96:
.Lfunc_end10:
	.size	_Z13GPU_argv_initv, .Lfunc_end10-_Z13GPU_argv_initv
	.cfi_endproc
                                        # -- End function
	.globl	_Z26__device_stub__syrk_kernelffPfS_ # -- Begin function _Z26__device_stub__syrk_kernelffPfS_
	.p2align	4, 0x90
	.type	_Z26__device_stub__syrk_kernelffPfS_,@function
_Z26__device_stub__syrk_kernelffPfS_:   # @_Z26__device_stub__syrk_kernelffPfS_
.Lfunc_begin11:
	.loc	0 124 0                         # syrk.cu:124:0
	.cfi_startproc
# %bb.0:                                # %entry
	pushq	%rbp
	.cfi_def_cfa_offset 16
	.cfi_offset %rbp, -16
	movq	%rsp, %rbp
	.cfi_def_cfa_register %rbp
	subq	$160, %rsp
	movss	%xmm0, -8(%rbp)
	movss	%xmm1, -4(%rbp)
	movq	%rdi, -104(%rbp)
	movq	%rsi, -96(%rbp)
.Ltmp97:
	.loc	0 124 1 prologue_end            # syrk.cu:124:1
	leaq	-8(%rbp), %rax
	movq	%rax, -144(%rbp)
	leaq	-4(%rbp), %rax
	movq	%rax, -136(%rbp)
	leaq	-104(%rbp), %rax
	movq	%rax, -128(%rbp)
	leaq	-96(%rbp), %rax
	movq	%rax, -120(%rbp)
	leaq	-88(%rbp), %rdi
	leaq	-72(%rbp), %rsi
	leaq	-56(%rbp), %rdx
	leaq	-48(%rbp), %rcx
	callq	__cudaPopCallConfiguration@PLT
	movq	-56(%rbp), %rax
	movq	-48(%rbp), %r10
	movq	-88(%rbp), %rcx
	movq	%rcx, -40(%rbp)
	movl	-80(%rbp), %ecx
	movl	%ecx, -32(%rbp)
	movq	-40(%rbp), %rsi
	movl	-32(%rbp), %edx
	movq	-72(%rbp), %rcx
	movq	%rcx, -24(%rbp)
	movl	-64(%rbp), %ecx
	movl	%ecx, -16(%rbp)
	movq	-24(%rbp), %rcx
	movl	-16(%rbp), %r8d
	movq	_Z26__device_stub__syrk_kernelffPfS_@GOTPCREL(%rip), %rdi
	leaq	-144(%rbp), %r9
	movq	%rax, (%rsp)
	movq	%r10, 8(%rsp)
	callq	cudaLaunchKernel@PLT
# %bb.1:                                # %setup.end
	.loc	0 138 1                         # syrk.cu:138:1
	addq	$160, %rsp
	popq	%rbp
	.cfi_def_cfa %rsp, 8
	retq
.Ltmp98:
.Lfunc_end11:
	.size	_Z26__device_stub__syrk_kernelffPfS_, .Lfunc_end11-_Z26__device_stub__syrk_kernelffPfS_
	.cfi_endproc
                                        # -- End function
	.section	.rodata.cst4,"aM",@progbits,4
	.p2align	2                               # -- Begin function _Z8syrkCudaPfS_S_
.LCPI12_0:
	.long	0x41800000                      # float 16
.LCPI12_1:
	.long	0x5f000000                      # float 9.22337203E+18
.LCPI12_2:
	.long	0x42800000                      # float 64
.LCPI12_3:
	.long	0x46424c00                      # float 12435
.LCPI12_4:
	.long	0x458e1000                      # float 4546
	.text
	.globl	_Z8syrkCudaPfS_S_
	.p2align	4, 0x90
	.type	_Z8syrkCudaPfS_S_,@function
_Z8syrkCudaPfS_S_:                      # @_Z8syrkCudaPfS_S_
.Lfunc_begin12:
	.loc	0 142 0                         # syrk.cu:142:0
	.cfi_startproc
# %bb.0:                                # %entry
	pushq	%rbp
	.cfi_def_cfa_offset 16
	.cfi_offset %rbp, -16
	movq	%rsp, %rbp
	.cfi_def_cfa_register %rbp
	pushq	%rbx
	subq	$152, %rsp
	.cfi_offset %rbx, -24
	movq	%rdi, -160(%rbp)
	movq	%rsi, -152(%rbp)
	movq	%rdx, -144(%rbp)
	leaq	-24(%rbp), %rdi
.Ltmp99:
	.loc	0 148 2 prologue_end            # syrk.cu:148:2
	movl	$1048576, %esi                  # imm = 0x100000
	callq	cudaMalloc@PLT
	leaq	-16(%rbp), %rdi
	.loc	0 149 2                         # syrk.cu:149:2
	movl	$1048576, %esi                  # imm = 0x100000
	callq	cudaMalloc@PLT
	.loc	0 150 13                        # syrk.cu:150:13
	movq	-24(%rbp), %rdi
	.loc	0 150 20 is_stmt 0              # syrk.cu:150:20
	movq	-160(%rbp), %rsi
	.loc	0 150 2                         # syrk.cu:150:2
	movl	$1048576, %edx                  # imm = 0x100000
	movl	$1, %ecx
	callq	cudaMemcpy@PLT
	.loc	0 151 13 is_stmt 1              # syrk.cu:151:13
	movq	-16(%rbp), %rdi
	.loc	0 151 20 is_stmt 0              # syrk.cu:151:20
	movq	-152(%rbp), %rsi
	.loc	0 151 2                         # syrk.cu:151:2
	movl	$1048576, %edx                  # imm = 0x100000
	movl	$1, %ecx
	callq	cudaMemcpy@PLT
	leaq	-56(%rbp), %rdi
	.loc	0 153 7 is_stmt 1               # syrk.cu:153:7
	movl	$32, %esi
	movl	$8, %edx
	movl	$1, %ecx
	callq	_ZN4dim3C2Ejjj@PLT
	movss	.LCPI12_0(%rip), %xmm0          # xmm0 = mem[0],zero,zero,zero
	.loc	0 154 21                        # syrk.cu:154:21
	callq	_ZSt4ceilf@PLT
	.loc	0 154 20 is_stmt 0              # syrk.cu:154:20
	movaps	%xmm0, %xmm1
	subss	.LCPI12_1(%rip), %xmm1
	cvttss2si	%xmm1, %rax
	cvttss2si	%xmm0, %rbx
	movq	%rbx, %rcx
	sarq	$63, %rcx
	andl	%ecx, %eax
	orl	%eax, %ebx
	movss	.LCPI12_2(%rip), %xmm0          # xmm0 = mem[0],zero,zero,zero
	.loc	0 154 78                        # syrk.cu:154:78
	callq	_ZSt4ceilf@PLT
	movaps	%xmm0, %xmm1
	subss	.LCPI12_1(%rip), %xmm1
	cvttss2si	%xmm1, %rax
	cvttss2si	%xmm0, %rdx
	movq	%rdx, %rcx
	sarq	$63, %rcx
	andq	%rcx, %rax
	orq	%rax, %rdx
	.loc	0 154 7                         # syrk.cu:154:7
	leaq	-40(%rbp), %rdi
	movl	%ebx, %esi
                                        # kill: def $edx killed $edx killed $rdx
	movl	$1, %ecx
	callq	_ZN4dim3C2Ejjj@PLT
	.loc	0 156 35 is_stmt 1              # syrk.cu:156:35
	movl	-56(%rbp), %esi
	.loc	0 156 44 is_stmt 0              # syrk.cu:156:44
	movl	-52(%rbp), %edx
	.loc	0 156 52                        # syrk.cu:156:52
	movl	-40(%rbp), %ecx
	.loc	0 156 61                        # syrk.cu:156:61
	movl	-36(%rbp), %r8d
	.loc	0 156 2                         # syrk.cu:156:2
	leaq	.L.str.10(%rip), %rdi
	movb	$0, %al
	callq	printf@PLT
	.loc	0 158 9 is_stmt 1               # syrk.cu:158:9
	movl	$2, %edi
	callq	cudaDeviceSetCacheConfig@PLT
	.loc	0 161 2                         # syrk.cu:161:2
	callq	cudaDeviceSynchronize@PLT
	.loc	0 162 12                        # syrk.cu:162:12
	callq	_Z7rtclockv@PLT
	.loc	0 162 10 is_stmt 0              # syrk.cu:162:10
	movsd	%xmm0, -72(%rbp)
	.loc	0 163 16 is_stmt 1              # syrk.cu:163:16
	movq	-40(%rbp), %rax
	movq	%rax, -104(%rbp)
	movl	-32(%rbp), %eax
	movl	%eax, -96(%rbp)
	.loc	0 163 21 is_stmt 0              # syrk.cu:163:21
	movq	-56(%rbp), %rax
	movq	%rax, -88(%rbp)
	movl	-48(%rbp), %eax
	movl	%eax, -80(%rbp)
	.loc	0 163 13                        # syrk.cu:163:13
	movq	-104(%rbp), %rax
	movq	%rax, -136(%rbp)
	movl	-96(%rbp), %eax
	movl	%eax, -128(%rbp)
	movq	-136(%rbp), %rdi
	movl	-128(%rbp), %esi
	movq	-88(%rbp), %rax
	movq	%rax, -120(%rbp)
	movl	-80(%rbp), %eax
	movl	%eax, -112(%rbp)
	movq	-120(%rbp), %rdx
	movl	-112(%rbp), %ecx
	xorl	%r8d, %r8d
	xorl	%r9d, %r9d
	callq	__cudaPushCallConfiguration@PLT
	cmpl	$0, %eax
	.loc	0 163 2                         # syrk.cu:163:2
	jne	.LBB12_2
# %bb.1:                                # %kcall.configok
	.loc	0 163 43                        # syrk.cu:163:43
	movq	-24(%rbp), %rdi
	.loc	0 163 49                        # syrk.cu:163:49
	movq	-16(%rbp), %rsi
	.loc	0 163 2                         # syrk.cu:163:2
	movss	.LCPI12_3(%rip), %xmm0          # xmm0 = mem[0],zero,zero,zero
	movss	.LCPI12_4(%rip), %xmm1          # xmm1 = mem[0],zero,zero,zero
	callq	_Z26__device_stub__syrk_kernelffPfS_@PLT
.LBB12_2:                               # %kcall.end
	.loc	0 164 2 is_stmt 1               # syrk.cu:164:2
	callq	cudaDeviceSynchronize@PLT
	.loc	0 166 2                         # syrk.cu:166:2
	callq	computeBandwidth@PLT
	.loc	0 167 2                         # syrk.cu:167:2
	callq	printComputeIntensity@PLT
	.loc	0 170 10                        # syrk.cu:170:10
	callq	_Z7rtclockv@PLT
	.loc	0 170 8 is_stmt 0               # syrk.cu:170:8
	movsd	%xmm0, -64(%rbp)
	.loc	0 171 10 is_stmt 1              # syrk.cu:171:10
	movq	stdout@GOTPCREL(%rip), %rax
	movq	(%rax), %rdi
	.loc	0 171 44 is_stmt 0              # syrk.cu:171:44
	movsd	-64(%rbp), %xmm0                # xmm0 = mem[0],zero
	.loc	0 171 50                        # syrk.cu:171:50
	subsd	-72(%rbp), %xmm0
	.loc	0 171 2                         # syrk.cu:171:2
	leaq	.L.str.11(%rip), %rsi
	movb	$1, %al
	callq	fprintf@PLT
	.loc	0 172 10 is_stmt 1              # syrk.cu:172:10
	movq	stderr@GOTPCREL(%rip), %rax
	movq	(%rax), %rdi
	.loc	0 172 30 is_stmt 0              # syrk.cu:172:30
	movsd	-64(%rbp), %xmm0                # xmm0 = mem[0],zero
	.loc	0 172 36                        # syrk.cu:172:36
	subsd	-72(%rbp), %xmm0
	.loc	0 172 2                         # syrk.cu:172:2
	leaq	.L.str.12(%rip), %rsi
	movb	$1, %al
	callq	fprintf@PLT
	.loc	0 174 13 is_stmt 1              # syrk.cu:174:13
	movq	-144(%rbp), %rdi
	.loc	0 174 30 is_stmt 0              # syrk.cu:174:30
	movq	-16(%rbp), %rsi
	.loc	0 174 2                         # syrk.cu:174:2
	movl	$1048576, %edx                  # imm = 0x100000
	movl	$2, %ecx
	callq	cudaMemcpy@PLT
	.loc	0 176 11 is_stmt 1              # syrk.cu:176:11
	movq	-24(%rbp), %rdi
	.loc	0 176 2 is_stmt 0               # syrk.cu:176:2
	callq	cudaFree@PLT
	.loc	0 177 11 is_stmt 1              # syrk.cu:177:11
	movq	-16(%rbp), %rdi
	.loc	0 177 2 is_stmt 0               # syrk.cu:177:2
	callq	cudaFree@PLT
	.loc	0 178 1 is_stmt 1               # syrk.cu:178:1
	addq	$152, %rsp
	popq	%rbx
	popq	%rbp
	.cfi_def_cfa %rsp, 8
	retq
.Ltmp100:
.Lfunc_end12:
	.size	_Z8syrkCudaPfS_S_, .Lfunc_end12-_Z8syrkCudaPfS_S_
	.cfi_endproc
                                        # -- End function
	.section	.text._ZN4dim3C2Ejjj,"axG",@progbits,_ZN4dim3C2Ejjj,comdat
	.weak	_ZN4dim3C2Ejjj                  # -- Begin function _ZN4dim3C2Ejjj
	.p2align	4, 0x90
	.type	_ZN4dim3C2Ejjj,@function
_ZN4dim3C2Ejjj:                         # @_ZN4dim3C2Ejjj
.Lfunc_begin13:
	.loc	5 423 0                         # /usr/local/cuda-11.5/include/vector_types.h:423:0
	.cfi_startproc
# %bb.0:                                # %entry
	pushq	%rbp
	.cfi_def_cfa_offset 16
	.cfi_offset %rbp, -16
	movq	%rsp, %rbp
	.cfi_def_cfa_register %rbp
	movq	%rdi, -24(%rbp)
	movl	%esi, -12(%rbp)
	movl	%edx, -8(%rbp)
	movl	%ecx, -4(%rbp)
	movq	-24(%rbp), %rax
.Ltmp101:
	.loc	5 423 107 prologue_end          # /usr/local/cuda-11.5/include/vector_types.h:423:107
	movl	-12(%rbp), %ecx
	.loc	5 423 105 is_stmt 0             # /usr/local/cuda-11.5/include/vector_types.h:423:105
	movl	%ecx, (%rax)
	.loc	5 423 114                       # /usr/local/cuda-11.5/include/vector_types.h:423:114
	movl	-8(%rbp), %ecx
	.loc	5 423 112                       # /usr/local/cuda-11.5/include/vector_types.h:423:112
	movl	%ecx, 4(%rax)
	.loc	5 423 121                       # /usr/local/cuda-11.5/include/vector_types.h:423:121
	movl	-4(%rbp), %ecx
	.loc	5 423 119                       # /usr/local/cuda-11.5/include/vector_types.h:423:119
	movl	%ecx, 8(%rax)
	.loc	5 423 126                       # /usr/local/cuda-11.5/include/vector_types.h:423:126
	popq	%rbp
	.cfi_def_cfa %rsp, 8
	retq
.Ltmp102:
.Lfunc_end13:
	.size	_ZN4dim3C2Ejjj, .Lfunc_end13-_ZN4dim3C2Ejjj
	.cfi_endproc
                                        # -- End function
	.section	.text._ZSt4ceilf,"axG",@progbits,_ZSt4ceilf,comdat
	.weak	_ZSt4ceilf                      # -- Begin function _ZSt4ceilf
	.p2align	4, 0x90
	.type	_ZSt4ceilf,@function
_ZSt4ceilf:                             # @_ZSt4ceilf
.Lfunc_begin14:
	.loc	10 166 0 is_stmt 1              # /usr/include/c++/10/cmath:166:0
	.cfi_startproc
# %bb.0:                                # %entry
	pushq	%rbp
	.cfi_def_cfa_offset 16
	.cfi_offset %rbp, -16
	movq	%rsp, %rbp
	.cfi_def_cfa_register %rbp
	subq	$16, %rsp
	movss	%xmm0, -4(%rbp)
.Ltmp103:
	.loc	10 166 28 prologue_end          # /usr/include/c++/10/cmath:166:28
	movss	-4(%rbp), %xmm0                 # xmm0 = mem[0],zero,zero,zero
	.loc	10 166 12 is_stmt 0             # /usr/include/c++/10/cmath:166:12
	callq	ceilf@PLT
	.loc	10 166 5                        # /usr/include/c++/10/cmath:166:5
	addq	$16, %rsp
	popq	%rbp
	.cfi_def_cfa %rsp, 8
	retq
.Ltmp104:
.Lfunc_end14:
	.size	_ZSt4ceilf, .Lfunc_end14-_ZSt4ceilf
	.cfi_endproc
                                        # -- End function
	.text
	.globl	main                            # -- Begin function main
	.p2align	4, 0x90
	.type	main,@function
main:                                   # @main
.Lfunc_begin15:
	.loc	0 182 0 is_stmt 1               # syrk.cu:182:0
	.cfi_startproc
# %bb.0:                                # %entry
	pushq	%rbp
	.cfi_def_cfa_offset 16
	.cfi_offset %rbp, -16
	movq	%rsp, %rbp
	.cfi_def_cfa_register %rbp
	subq	$48, %rsp
	movl	$0, -44(%rbp)
.Ltmp105:
	.loc	0 189 18 prologue_end           # syrk.cu:189:18
	movl	$1048576, %edi                  # imm = 0x100000
	callq	malloc@PLT
	.loc	0 189 4 is_stmt 0               # syrk.cu:189:4
	movq	%rax, -16(%rbp)
	.loc	0 190 18 is_stmt 1              # syrk.cu:190:18
	movl	$1048576, %edi                  # imm = 0x100000
	callq	malloc@PLT
	.loc	0 190 4 is_stmt 0               # syrk.cu:190:4
	movq	%rax, -8(%rbp)
	.loc	0 191 32 is_stmt 1              # syrk.cu:191:32
	movl	$1048576, %edi                  # imm = 0x100000
	callq	malloc@PLT
	.loc	0 191 18 is_stmt 0              # syrk.cu:191:18
	movq	%rax, -24(%rbp)
	.loc	0 193 14 is_stmt 1              # syrk.cu:193:14
	movq	-16(%rbp), %rdi
	.loc	0 193 17 is_stmt 0              # syrk.cu:193:17
	movq	-8(%rbp), %rsi
	.loc	0 193 2                         # syrk.cu:193:2
	callq	_Z11init_arraysPfS_@PLT
	.loc	0 195 2 is_stmt 1               # syrk.cu:195:2
	callq	_Z13GPU_argv_initv@PLT
	.loc	0 196 11                        # syrk.cu:196:11
	movq	-16(%rbp), %rdi
	.loc	0 196 14 is_stmt 0              # syrk.cu:196:14
	movq	-8(%rbp), %rsi
	.loc	0 196 17                        # syrk.cu:196:17
	movq	-24(%rbp), %rdx
	.loc	0 196 2                         # syrk.cu:196:2
	callq	_Z8syrkCudaPfS_S_@PLT
	.loc	0 198 12 is_stmt 1              # syrk.cu:198:12
	callq	_Z7rtclockv@PLT
	.loc	0 198 10 is_stmt 0              # syrk.cu:198:10
	movsd	%xmm0, -40(%rbp)
	.loc	0 199 7 is_stmt 1               # syrk.cu:199:7
	movq	-16(%rbp), %rdi
	.loc	0 199 10 is_stmt 0              # syrk.cu:199:10
	movq	-8(%rbp), %rsi
	.loc	0 199 2                         # syrk.cu:199:2
	callq	_Z4syrkPfS_@PLT
	.loc	0 200 10 is_stmt 1              # syrk.cu:200:10
	callq	_Z7rtclockv@PLT
	.loc	0 200 8 is_stmt 0               # syrk.cu:200:8
	movsd	%xmm0, -32(%rbp)
	.loc	0 201 10 is_stmt 1              # syrk.cu:201:10
	movq	stdout@GOTPCREL(%rip), %rax
	movq	(%rax), %rdi
	.loc	0 201 44 is_stmt 0              # syrk.cu:201:44
	movsd	-32(%rbp), %xmm0                # xmm0 = mem[0],zero
	.loc	0 201 50                        # syrk.cu:201:50
	subsd	-40(%rbp), %xmm0
	.loc	0 201 2                         # syrk.cu:201:2
	leaq	.L.str.13(%rip), %rsi
	movb	$1, %al
	callq	fprintf@PLT
	.loc	0 203 17 is_stmt 1              # syrk.cu:203:17
	movq	-8(%rbp), %rdi
	.loc	0 203 20 is_stmt 0              # syrk.cu:203:20
	movq	-24(%rbp), %rsi
	.loc	0 203 2                         # syrk.cu:203:2
	callq	_Z14compareResultsPfS_@PLT
	.loc	0 207 7 is_stmt 1               # syrk.cu:207:7
	movq	-16(%rbp), %rdi
	.loc	0 207 2 is_stmt 0               # syrk.cu:207:2
	callq	free@PLT
	.loc	0 208 7 is_stmt 1               # syrk.cu:208:7
	movq	-8(%rbp), %rdi
	.loc	0 208 2 is_stmt 0               # syrk.cu:208:2
	callq	free@PLT
	.loc	0 209 7 is_stmt 1               # syrk.cu:209:7
	movq	-24(%rbp), %rdi
	.loc	0 209 2 is_stmt 0               # syrk.cu:209:2
	callq	free@PLT
	.loc	0 211 2 is_stmt 1               # syrk.cu:211:2
	xorl	%eax, %eax
	addq	$48, %rsp
	popq	%rbp
	.cfi_def_cfa %rsp, 8
	retq
.Ltmp106:
.Lfunc_end15:
	.size	main, .Lfunc_end15-main
	.cfi_endproc
                                        # -- End function
	.p2align	4, 0x90                         # -- Begin function __cuda_register_globals
	.type	__cuda_register_globals,@function
__cuda_register_globals:                # @__cuda_register_globals
.Lfunc_begin16:
	.cfi_startproc
# %bb.0:                                # %entry
	pushq	%rbx
	.cfi_def_cfa_offset 16
	.cfi_offset %rbx, -16
	movq	%rdi, %rbx
	movq	_Z26__device_stub__syrk_kernelffPfS_@GOTPCREL(%rip), %rsi
	leaq	.L__unnamed_1(%rip), %rcx
	movq	%rcx, %rdx
	movl	$-1, %r8d
	xorl	%r9d, %r9d
	pushq	$0
	.cfi_adjust_cfa_offset 8
	pushq	$0
	.cfi_adjust_cfa_offset 8
	pushq	$0
	.cfi_adjust_cfa_offset 8
	pushq	$0
	.cfi_adjust_cfa_offset 8
	callq	__cudaRegisterFunction@PLT
	addq	$32, %rsp
	.cfi_adjust_cfa_offset -32
	leaq	total_bytes_accessed(%rip), %rsi
	leaq	.L__unnamed_2(%rip), %rcx
	movl	$8, %r9d
	movq	%rbx, %rdi
	movq	%rcx, %rdx
	xorl	%r8d, %r8d
	pushq	$0
	.cfi_adjust_cfa_offset 8
	pushq	$0
	.cfi_adjust_cfa_offset 8
	callq	__cudaRegisterVar@PLT
	addq	$16, %rsp
	.cfi_adjust_cfa_offset -16
	leaq	total_memory_time_ns(%rip), %rsi
	leaq	.L__unnamed_3(%rip), %rcx
	movl	$8, %r9d
	movq	%rbx, %rdi
	movq	%rcx, %rdx
	xorl	%r8d, %r8d
	pushq	$0
	.cfi_adjust_cfa_offset 8
	pushq	$0
	.cfi_adjust_cfa_offset 8
	callq	__cudaRegisterVar@PLT
	addq	$16, %rsp
	.cfi_adjust_cfa_offset -16
	leaq	total_flops(%rip), %rsi
	leaq	.L__unnamed_4(%rip), %rcx
	movl	$8, %r9d
	movq	%rbx, %rdi
	movq	%rcx, %rdx
	xorl	%r8d, %r8d
	pushq	$0
	.cfi_adjust_cfa_offset 8
	pushq	$0
	.cfi_adjust_cfa_offset 8
	callq	__cudaRegisterVar@PLT
	addq	$16, %rsp
	.cfi_adjust_cfa_offset -16
	leaq	total_bytes(%rip), %rsi
	leaq	.L__unnamed_5(%rip), %rcx
	movl	$8, %r9d
	movq	%rbx, %rdi
	movq	%rcx, %rdx
	xorl	%r8d, %r8d
	pushq	$0
	.cfi_adjust_cfa_offset 8
	pushq	$0
	.cfi_adjust_cfa_offset 8
	callq	__cudaRegisterVar@PLT
	addq	$16, %rsp
	.cfi_adjust_cfa_offset -16
	popq	%rbx
	.cfi_def_cfa_offset 8
	retq
.Lfunc_end16:
	.size	__cuda_register_globals, .Lfunc_end16-__cuda_register_globals
	.cfi_endproc
                                        # -- End function
	.p2align	4, 0x90                         # -- Begin function __cuda_module_ctor
	.type	__cuda_module_ctor,@function
__cuda_module_ctor:                     # @__cuda_module_ctor
.Lfunc_begin17:
	.cfi_startproc
# %bb.0:                                # %entry
	pushq	%rbx
	.cfi_def_cfa_offset 16
	.cfi_offset %rbx, -16
	leaq	__cuda_fatbin_wrapper(%rip), %rdi
	callq	__cudaRegisterFatBinary@PLT
	movq	%rax, %rbx
	movq	%rax, __cuda_gpubin_handle(%rip)
	movq	%rax, %rdi
	callq	__cuda_register_globals
	movq	%rbx, %rdi
	callq	__cudaRegisterFatBinaryEnd@PLT
	leaq	__cuda_module_dtor(%rip), %rdi
	callq	atexit@PLT
	popq	%rbx
	.cfi_def_cfa_offset 8
	retq
.Lfunc_end17:
	.size	__cuda_module_ctor, .Lfunc_end17-__cuda_module_ctor
	.cfi_endproc
                                        # -- End function
	.p2align	4, 0x90                         # -- Begin function __cuda_module_dtor
	.type	__cuda_module_dtor,@function
__cuda_module_dtor:                     # @__cuda_module_dtor
.Lfunc_begin18:
	.cfi_startproc
# %bb.0:                                # %entry
	pushq	%rax
	.cfi_def_cfa_offset 16
	movq	__cuda_gpubin_handle(%rip), %rdi
	callq	__cudaUnregisterFatBinary@PLT
	popq	%rax
	.cfi_def_cfa_offset 8
	retq
.Lfunc_end18:
	.size	__cuda_module_dtor, .Lfunc_end18-__cuda_module_dtor
	.cfi_endproc
                                        # -- End function
	.type	.L.str,@object                  # @.str
	.section	.rodata.str1.1,"aMS",@progbits,1
.L.str:
	.asciz	"Error return from gettimeofday: %d"
	.size	.L.str, 35

	.type	total_bytes_accessed,@object    # @total_bytes_accessed
	.local	total_bytes_accessed
	.comm	total_bytes_accessed,8,8
	.type	total_memory_time_ns,@object    # @total_memory_time_ns
	.local	total_memory_time_ns
	.comm	total_memory_time_ns,8,8
	.type	.L.str.1,@object                # @.str.1
.L.str.1:
	.asciz	"Memory Bandwidth: %.8f GB/s\n"
	.size	.L.str.1, 29

	.type	.L.str.2,@object                # @.str.2
.L.str.2:
	.asciz	"Total Bytes Accessed: %llu bytes\n"
	.size	.L.str.2, 34

	.type	.L.str.3,@object                # @.str.3
.L.str.3:
	.asciz	"Total Time: %.8llu ns\n"
	.size	.L.str.3, 23

	.type	total_flops,@object             # @total_flops
	.local	total_flops
	.comm	total_flops,8,8
	.type	total_bytes,@object             # @total_bytes
	.local	total_bytes
	.comm	total_bytes,8,8
	.type	.L.str.4,@object                # @.str.4
.L.str.4:
	.asciz	"\nCompute Intensity Results:\n"
	.size	.L.str.4, 29

	.type	.L.str.5,@object                # @.str.5
.L.str.5:
	.asciz	"Total FLOPs: %llu\n"
	.size	.L.str.5, 19

	.type	.L.str.6,@object                # @.str.6
.L.str.6:
	.asciz	"Total Bytes: %llu\n"
	.size	.L.str.6, 19

	.type	.L.str.7,@object                # @.str.7
.L.str.7:
	.asciz	"Compute Intensity: %.8f FLOPs/byte\n"
	.size	.L.str.7, 36

	.type	.L.str.8,@object                # @.str.8
.L.str.8:
	.asciz	"Non-Matching CPU-GPU Outputs Beyond Error Threshold of %4.2f Percent: %d\n"
	.size	.L.str.8, 74

	.type	.L.str.9,@object                # @.str.9
.L.str.9:
	.asciz	"setting device %d with name %s\n"
	.size	.L.str.9, 32

	.type	.L.str.10,@object               # @.str.10
.L.str.10:
	.asciz	"%d, %d, %d, %d\n"
	.size	.L.str.10, 16

	.type	.L.str.11,@object               # @.str.11
.L.str.11:
	.asciz	"GPU Runtime: %0.6lfs\n"
	.size	.L.str.11, 22

	.type	.L.str.12,@object               # @.str.12
.L.str.12:
	.asciz	"%0.6lf\n"
	.size	.L.str.12, 8

	.type	.L.str.13,@object               # @.str.13
.L.str.13:
	.asciz	"CPU Runtime: %0.6lfs\n"
	.size	.L.str.13, 22

	.type	.L__unnamed_1,@object           # @0
.L__unnamed_1:
	.asciz	"_Z11syrk_kernelffPfS_"
	.size	.L__unnamed_1, 22

	.type	.L__unnamed_2,@object           # @1
.L__unnamed_2:
	.asciz	"total_bytes_accessed"
	.size	.L__unnamed_2, 21

	.type	.L__unnamed_3,@object           # @2
.L__unnamed_3:
	.asciz	"total_memory_time_ns"
	.size	.L__unnamed_3, 21

	.type	.L__unnamed_4,@object           # @3
.L__unnamed_4:
	.asciz	"total_flops"
	.size	.L__unnamed_4, 12

	.type	.L__unnamed_5,@object           # @4
.L__unnamed_5:
	.asciz	"total_bytes"
	.size	.L__unnamed_5, 12

	.type	.L__unnamed_6,@object           # @5
	.section	.nv_fatbin,"a",@progbits
	.p2align	3
.L__unnamed_6:
